target datalayout = "e-m:e-p270:32:32-p271:32:32-p272:64:64-i64:64-i128:128-f80:128-n8:16:32:64-S128"
target triple = "x86_64-pc-linux-gnu"

%struct._generic_N_Vector = type { ptr, ptr, ptr }
%struct._N_VectorContent_Serial = type { i64, i32, ptr }

; Function Attrs: nounwind uwtable
define internal i32 @f(double noundef %0, ptr noundef %1, ptr noundef %2, ptr noundef %3) #0 {
  %5 = alloca double, align 8
  %6 = alloca ptr, align 8
  %7 = alloca ptr, align 8
  %8 = alloca ptr, align 8
  %9 = alloca ptr, align 8
  %10 = alloca double, align 8
  %11 = alloca double, align 8
  store double %0, ptr %5, align 8, !tbaa !4
  store ptr %1, ptr %6, align 8, !tbaa !10
  store ptr %2, ptr %7, align 8, !tbaa !10
  store ptr %3, ptr %8, align 8, !tbaa !17
  call void @llvm.lifetime.start.p0(i64 8, ptr %9) #5
  %12 = load ptr, ptr %8, align 8, !tbaa !17
  store ptr %12, ptr %9, align 8, !tbaa !34
  call void @llvm.lifetime.start.p0(i64 8, ptr %10) #5
  %13 = load ptr, ptr %9, align 8, !tbaa !34
  %14 = getelementptr inbounds double, ptr %13, i64 0
  %15 = load double, ptr %14, align 8, !tbaa !4
  store double %15, ptr %10, align 8, !tbaa !4
  call void @llvm.lifetime.start.p0(i64 8, ptr %11) #5
  %16 = load ptr, ptr %6, align 8, !tbaa !10
  %17 = getelementptr inbounds nuw %struct._generic_N_Vector, ptr %16, i32 0, i32 0
  %18 = load ptr, ptr %17, align 8, !tbaa !24
  %19 = getelementptr inbounds nuw %struct._N_VectorContent_Serial, ptr %18, i32 0, i32 2
  %20 = load ptr, ptr %19, align 8, !tbaa !27
  %21 = getelementptr inbounds double, ptr %20, i64 0
  %22 = load double, ptr %21, align 8, !tbaa !4
  store double %22, ptr %11, align 8, !tbaa !4
  %23 = load double, ptr %10, align 8, !tbaa !4
  %24 = load double, ptr %11, align 8, !tbaa !4
  %25 = load double, ptr %5, align 8, !tbaa !4
  %26 = load double, ptr %5, align 8, !tbaa !4
  %27 = call double @llvm.fmuladd.f64(double %25, double %26, double 1.000000e+00)
  %28 = fdiv double 1.000000e+00, %27
  %29 = call double @llvm.fmuladd.f64(double %23, double %24, double %28)
  %30 = load double, ptr %10, align 8, !tbaa !4
  %31 = load double, ptr %5, align 8, !tbaa !4
  %32 = call double @atan(double noundef %31) #5, !tbaa !18
  %33 = fneg double %30
  %34 = call double @llvm.fmuladd.f64(double %33, double %32, double %29)
  %35 = load ptr, ptr %7, align 8, !tbaa !10
  %36 = getelementptr inbounds nuw %struct._generic_N_Vector, ptr %35, i32 0, i32 0
  %37 = load ptr, ptr %36, align 8, !tbaa !24
  %38 = getelementptr inbounds nuw %struct._N_VectorContent_Serial, ptr %37, i32 0, i32 2
  %39 = load ptr, ptr %38, align 8, !tbaa !27
  %40 = getelementptr inbounds double, ptr %39, i64 0
  store double %34, ptr %40, align 8, !tbaa !4
  call void @llvm.lifetime.end.p0(i64 8, ptr %11) #5
  call void @llvm.lifetime.end.p0(i64 8, ptr %10) #5
  call void @llvm.lifetime.end.p0(i64 8, ptr %9) #5
  ret i32 0
}