; Function Attrs: mustprogress nofree nounwind willreturn memory(readwrite, inaccessiblemem: write) uwtable
define internal noundef i32 @f(double noundef %0, ptr noundef readonly captures(none) %1, ptr noundef readonly captures(none) %2, ptr noundef readonly captures(none) %3) #4 {
  %5 = load double, ptr %3, align 8, !tbaa !4
  %6 = load ptr, ptr %1, align 8, !tbaa !14
  %7 = getelementptr inbounds nuw i8, ptr %6, i64 16
  %8 = load ptr, ptr %7, align 8, !tbaa !17
  %9 = load double, ptr %8, align 8, !tbaa !4
  %10 = tail call double @llvm.fmuladd.f64(double %0, double %0, double 1.000000e+00)
  %11 = fdiv double 1.000000e+00, %10
  %12 = tail call double @llvm.fmuladd.f64(double %5, double %9, double %11)
  %13 = tail call double @atan(double noundef %0) #9, !tbaa !23
  %14 = fneg double %5
  %15 = tail call double @llvm.fmuladd.f64(double %14, double %13, double %12)
  %16 = load ptr, ptr %2, align 8, !tbaa !14
  %17 = getelementptr inbounds nuw i8, ptr %16, i64 16
  %18 = load ptr, ptr %17, align 8, !tbaa !17
  store double %15, ptr %18, align 8, !tbaa !4
  ret i32 0
}